target datalayout = "e-m:e-p270:32:32-p271:32:32-p272:64:64-i64:64-i128:128-f80:128-n8:16:32:64-S128"
target triple = "x86_64-unknown-linux-gnu"

%"struct.bound_propagator::bound" = type { %class.mpq, double, i32, i32, %union.anon, ptr }
%class.mpq = type { %class.mpz, %class.mpz }
%class.mpz = type { i32, i8, ptr }
%union.anon = type { i32 }

; Function Attrs: mustprogress nounwind uwtable
define hidden noundef ptr @_ZN16bound_propagator5bound2atEj(ptr noundef nonnull align 8 dereferenceable(64) %this, i32 noundef %timestamp) #5 align 2 {
entry:
  %this.addr = alloca ptr, align 8
  %timestamp.addr = alloca i32, align 4
  %r = alloca ptr, align 8
  store ptr %this, ptr %this.addr, align 8
  store i32 %timestamp, ptr %timestamp.addr, align 4
  %this1 = load ptr, ptr %this.addr, align 8
  store ptr %this1, ptr %r, align 8
  br label %while.cond

while.cond:                                       ; preds = %while.body, %entry
  %0 = load ptr, ptr %r, align 8
  %cmp = icmp ne ptr %0, null
  br i1 %cmp, label %land.rhs, label %land.end

land.rhs:                                         ; preds = %while.cond
  %1 = load ptr, ptr %r, align 8
  %m_timestamp = getelementptr inbounds %"struct.bound_propagator::bound", ptr %1, i32 0, i32 3
  %2 = load i32, ptr %m_timestamp, align 4
  %3 = load i32, ptr %timestamp.addr, align 4
  %cmp2 = icmp uge i32 %2, %3
  br label %land.end

land.end:                                         ; preds = %land.rhs, %while.cond
  %4 = phi i1 [ false, %while.cond ], [ %cmp2, %land.rhs ]
  br i1 %4, label %while.body, label %while.end

while.body:                                       ; preds = %land.end
  %5 = load ptr, ptr %r, align 8
  %m_prev = getelementptr inbounds %"struct.bound_propagator::bound", ptr %5, i32 0, i32 5
  %6 = load ptr, ptr %m_prev, align 8
  store ptr %6, ptr %r, align 8
  br label %while.cond, !llvm.loop !13

while.end:                                        ; preds = %land.end
  %7 = load ptr, ptr %r, align 8
  ret ptr %7
}