; Function Attrs: mustprogress nofree norecurse nosync nounwind willreturn memory(read, inaccessiblemem: none) uwtable
define hidden noundef ptr @_ZN16bound_propagator5bound2atEj(ptr noundef nonnull readonly align 8 dereferenceable(64) %this, i32 noundef %timestamp) local_unnamed_addr #12 align 2 {
entry:
  br label %land.rhs

land.rhs:                                         ; preds = %entry, %while.body
  %r.04 = phi ptr [ %this, %entry ], [ %1, %while.body ]
  %m_timestamp = getelementptr inbounds i8, ptr %r.04, i64 44
  %0 = load i32, ptr %m_timestamp, align 4
  %cmp2.not = icmp ult i32 %0, %timestamp
  br i1 %cmp2.not, label %while.end, label %while.body

while.body:                                       ; preds = %land.rhs
  %m_prev = getelementptr inbounds i8, ptr %r.04, i64 56
  %1 = load ptr, ptr %m_prev, align 8
  %cmp.not = icmp eq ptr %1, null
  br i1 %cmp.not, label %while.end, label %land.rhs, !llvm.loop !19

while.end:                                        ; preds = %while.body, %land.rhs
  %r.0.lcssa = phi ptr [ null, %while.body ], [ %r.04, %land.rhs ]
  ret ptr %r.0.lcssa
}